target datalayout = "e-m:e-p270:32:32-p271:32:32-p272:64:64-i64:64-i128:128-f80:128-n8:16:32:64-S128"
target triple = "x86_64-pc-linux-gnu"

%struct.Rwr_Man_t_ = type { i32, ptr, ptr, ptr, ptr, ptr, ptr, ptr, ptr, ptr, ptr, ptr, i32, i32, i32, i32, i32, ptr, ptr, ptr, ptr, ptr, i32, i32, i32, i32, i32, [222 x i32], i32, i32, i32, i64, i64, i64, i64, i64, i64, i64 }
%struct.Rwr_Node_t_ = type <{ i32, i32, i16, i16, i16, i32, [6 x i8], ptr, ptr, ptr }>

; Function Attrs: inlinehint nounwind uwtable
define internal ptr @Rwr_Regular(ptr noundef %0) #2 {
  %2 = alloca ptr, align 8
  store ptr %0, ptr %2, align 8, !tbaa !21
  %3 = load ptr, ptr %2, align 8, !tbaa !21
  %4 = ptrtoint ptr %3 to i64
  %5 = and i64 %4, -2
  %6 = inttoptr i64 %5 to ptr
  ret ptr %6
}

; Function Attrs: nounwind uwtable
define internal void @Rwr_MarkUsed_rec(ptr noundef %0, ptr noundef %1) #0 {
  %3 = alloca ptr, align 8
  %4 = alloca ptr, align 8
  store ptr %0, ptr %3, align 8, !tbaa !3
  store ptr %1, ptr %4, align 8, !tbaa !21
  %5 = load ptr, ptr %4, align 8, !tbaa !21
  %6 = getelementptr inbounds nuw %struct.Rwr_Node_t_, ptr %5, i32 0, i32 5
  %7 = load i32, ptr %6, align 2
  %8 = lshr i32 %7, 30
  %9 = and i32 %8, 1
  %10 = icmp ne i32 %9, 0
  br i1 %10, label %19, label %11

11:                                               ; preds = %2
  %12 = load ptr, ptr %4, align 8, !tbaa !21
  %13 = getelementptr inbounds nuw %struct.Rwr_Node_t_, ptr %12, i32 0, i32 1
  %14 = load i32, ptr %13, align 4, !tbaa !47
  %15 = load ptr, ptr %3, align 8, !tbaa !3
  %16 = getelementptr inbounds nuw %struct.Rwr_Man_t_, ptr %15, i32 0, i32 12
  %17 = load i32, ptr %16, align 8, !tbaa !50
  %18 = icmp eq i32 %14, %17
  br i1 %18, label %19, label %20

19:                                               ; preds = %11, %2
  br label %41

20:                                               ; preds = %11
  %21 = load ptr, ptr %3, align 8, !tbaa !3
  %22 = getelementptr inbounds nuw %struct.Rwr_Man_t_, ptr %21, i32 0, i32 12
  %23 = load i32, ptr %22, align 8, !tbaa !50
  %24 = load ptr, ptr %4, align 8, !tbaa !21
  %25 = getelementptr inbounds nuw %struct.Rwr_Node_t_, ptr %24, i32 0, i32 1
  store i32 %23, ptr %25, align 4, !tbaa !47
  %26 = load ptr, ptr %4, align 8, !tbaa !21
  %27 = getelementptr inbounds nuw %struct.Rwr_Node_t_, ptr %26, i32 0, i32 5
  %28 = load i32, ptr %27, align 2
  %29 = and i32 %28, -1073741825
  %30 = or i32 %29, 1073741824
  store i32 %30, ptr %27, align 2
  %31 = load ptr, ptr %3, align 8, !tbaa !3
  %32 = load ptr, ptr %4, align 8, !tbaa !21
  %33 = getelementptr inbounds nuw %struct.Rwr_Node_t_, ptr %32, i32 0, i32 7
  %34 = load ptr, ptr %33, align 8, !tbaa !48
  %35 = call ptr @Rwr_Regular(ptr noundef %34)
  call void @Rwr_MarkUsed_rec(ptr noundef %31, ptr noundef %35)
  %36 = load ptr, ptr %3, align 8, !tbaa !3
  %37 = load ptr, ptr %4, align 8, !tbaa !21
  %38 = getelementptr inbounds nuw %struct.Rwr_Node_t_, ptr %37, i32 0, i32 8
  %39 = load ptr, ptr %38, align 8, !tbaa !49
  %40 = call ptr @Rwr_Regular(ptr noundef %39)
  call void @Rwr_MarkUsed_rec(ptr noundef %36, ptr noundef %40)
  br label %41

41:                                               ; preds = %20, %19
  ret void
}