; Function Attrs: nofree nosync nounwind memory(readwrite, inaccessiblemem: none) uwtable
define internal fastcc void @Rwr_MarkUsed_rec(ptr noundef readonly captures(none) %0, ptr noundef captures(none) %1) unnamed_addr #3 {
  %3 = getelementptr inbounds nuw i8, ptr %1, i64 14
  %4 = load i32, ptr %3, align 2
  %5 = and i32 %4, 1073741824
  %.not11 = icmp eq i32 %5, 0
  br i1 %.not11, label %.lr.ph, label %tailrecurse._crit_edge

.lr.ph:                                           ; preds = %2
  %6 = getelementptr inbounds nuw i8, ptr %0, i64 96
  br label %7

7:                                                ; preds = %.lr.ph, %tailrecurse
  %8 = phi i32 [ %4, %.lr.ph ], [ %26, %tailrecurse ]
  %9 = phi ptr [ %3, %.lr.ph ], [ %25, %tailrecurse ]
  %.tr1012 = phi ptr [ %1, %.lr.ph ], [ %24, %tailrecurse ]
  %10 = getelementptr inbounds nuw i8, ptr %.tr1012, i64 4
  %11 = load i32, ptr %10, align 4, !tbaa !28
  %12 = load i32, ptr %6, align 8, !tbaa !27
  %13 = icmp eq i32 %11, %12
  br i1 %13, label %tailrecurse._crit_edge, label %tailrecurse

tailrecurse:                                      ; preds = %7
  store i32 %12, ptr %10, align 4, !tbaa !28
  %14 = or disjoint i32 %8, 1073741824
  store i32 %14, ptr %9, align 2
  %15 = getelementptr inbounds nuw i8, ptr %.tr1012, i64 24
  %16 = load ptr, ptr %15, align 8, !tbaa !46
  %17 = ptrtoint ptr %16 to i64
  %18 = and i64 %17, -2
  %19 = inttoptr i64 %18 to ptr
  tail call fastcc void @Rwr_MarkUsed_rec(ptr noundef nonnull %0, ptr noundef %19)
  %20 = getelementptr inbounds nuw i8, ptr %.tr1012, i64 32
  %21 = load ptr, ptr %20, align 8, !tbaa !47
  %22 = ptrtoint ptr %21 to i64
  %23 = and i64 %22, -2
  %24 = inttoptr i64 %23 to ptr
  %25 = getelementptr inbounds nuw i8, ptr %24, i64 14
  %26 = load i32, ptr %25, align 2
  %27 = and i32 %26, 1073741824
  %.not = icmp eq i32 %27, 0
  br i1 %.not, label %7, label %tailrecurse._crit_edge

tailrecurse._crit_edge:                           ; preds = %7, %tailrecurse, %2
  ret void
}